target datalayout = "e-m:e-p270:32:32-p271:32:32-p272:64:64-i64:64-i128:128-f80:128-n8:16:32:64-S128"
target triple = "x86_64-pc-linux-gnu"

%struct.attr_check = type { i32, i32, ptr, i32, ptr, ptr }
%struct.attr_check_item = type { ptr, ptr }

@.str = private unnamed_addr constant [5 x i8] c"diff\00", align 1
@userdiff_find_by_path.check = internal global ptr null, align 8
@git_attr__true = external constant [0 x i8], align 1
@git_attr__false = external constant [0 x i8], align 1

; Function Attrs: nounwind uwtable
define dso_local ptr @userdiff_find_by_path(ptr noundef %0, ptr noundef %1) #0 {
  %3 = alloca ptr, align 8
  %4 = alloca ptr, align 8
  %5 = alloca ptr, align 8
  store ptr %0, ptr %4, align 8, !tbaa !43
  store ptr %1, ptr %5, align 8, !tbaa !4
  %6 = load ptr, ptr @userdiff_find_by_path.check, align 8, !tbaa !45
  %7 = icmp ne ptr %6, null
  br i1 %7, label %10, label %8

8:                                                ; preds = %2
  %9 = call ptr (ptr, ...) @attr_check_initl(ptr noundef @.str, ptr noundef null)
  store ptr %9, ptr @userdiff_find_by_path.check, align 8, !tbaa !45
  br label %10

10:                                               ; preds = %8, %2
  %11 = load ptr, ptr %5, align 8, !tbaa !4
  %12 = icmp ne ptr %11, null
  br i1 %12, label %14, label %13

13:                                               ; preds = %10
  store ptr null, ptr %3, align 8
  br label %52

14:                                               ; preds = %10
  %15 = load ptr, ptr %4, align 8, !tbaa !43
  %16 = load ptr, ptr %5, align 8, !tbaa !4
  %17 = load ptr, ptr @userdiff_find_by_path.check, align 8, !tbaa !45
  call void @git_check_attr(ptr noundef %15, ptr noundef %16, ptr noundef %17)
  %18 = load ptr, ptr @userdiff_find_by_path.check, align 8, !tbaa !45
  %19 = getelementptr inbounds nuw %struct.attr_check, ptr %18, i32 0, i32 2
  %20 = load ptr, ptr %19, align 8, !tbaa !47
  %21 = getelementptr inbounds %struct.attr_check_item, ptr %20, i64 0
  %22 = getelementptr inbounds nuw %struct.attr_check_item, ptr %21, i32 0, i32 1
  %23 = load ptr, ptr %22, align 8, !tbaa !52
  %24 = icmp eq ptr %23, @git_attr__true
  br i1 %24, label %25, label %26

25:                                               ; preds = %14
  store ptr @driver_true, ptr %3, align 8
  br label %52

26:                                               ; preds = %14
  %27 = load ptr, ptr @userdiff_find_by_path.check, align 8, !tbaa !45
  %28 = getelementptr inbounds nuw %struct.attr_check, ptr %27, i32 0, i32 2
  %29 = load ptr, ptr %28, align 8, !tbaa !47
  %30 = getelementptr inbounds %struct.attr_check_item, ptr %29, i64 0
  %31 = getelementptr inbounds nuw %struct.attr_check_item, ptr %30, i32 0, i32 1
  %32 = load ptr, ptr %31, align 8, !tbaa !52
  %33 = icmp eq ptr %32, @git_attr__false
  br i1 %33, label %34, label %35

34:                                               ; preds = %26
  store ptr @driver_false, ptr %3, align 8
  br label %52

35:                                               ; preds = %26
  %36 = load ptr, ptr @userdiff_find_by_path.check, align 8, !tbaa !45
  %37 = getelementptr inbounds nuw %struct.attr_check, ptr %36, i32 0, i32 2
  %38 = load ptr, ptr %37, align 8, !tbaa !47
  %39 = getelementptr inbounds %struct.attr_check_item, ptr %38, i64 0
  %40 = getelementptr inbounds nuw %struct.attr_check_item, ptr %39, i32 0, i32 1
  %41 = load ptr, ptr %40, align 8, !tbaa !52
  %42 = icmp eq ptr %41, null
  br i1 %42, label %43, label %44

43:                                               ; preds = %35
  store ptr null, ptr %3, align 8
  br label %52

44:                                               ; preds = %35
  %45 = load ptr, ptr @userdiff_find_by_path.check, align 8, !tbaa !45
  %46 = getelementptr inbounds nuw %struct.attr_check, ptr %45, i32 0, i32 2
  %47 = load ptr, ptr %46, align 8, !tbaa !47
  %48 = getelementptr inbounds %struct.attr_check_item, ptr %47, i64 0
  %49 = getelementptr inbounds nuw %struct.attr_check_item, ptr %48, i32 0, i32 1
  %50 = load ptr, ptr %49, align 8, !tbaa !52
  %51 = call ptr @userdiff_find_by_name(ptr noundef %50)
  store ptr %51, ptr %3, align 8
  br label %52

52:                                               ; preds = %44, %43, %34, %25, %13
  %53 = load ptr, ptr %3, align 8
  ret ptr %53
}