; Function Attrs: nounwind uwtable
define dso_local noundef ptr @userdiff_find_by_path(ptr noundef %0, ptr noundef %1) local_unnamed_addr #0 {
  %3 = load ptr, ptr @userdiff_find_by_path.check, align 8, !tbaa !34
  %.not = icmp eq ptr %3, null
  br i1 %.not, label %4, label %6

4:                                                ; preds = %2
  %5 = tail call ptr (ptr, ...) @attr_check_initl(ptr noundef nonnull @.str, ptr noundef null) #9
  store ptr %5, ptr @userdiff_find_by_path.check, align 8, !tbaa !34
  br label %6

6:                                                ; preds = %4, %2
  %7 = phi ptr [ %5, %4 ], [ %3, %2 ]
  %.not6 = icmp eq ptr %1, null
  br i1 %.not6, label %21, label %8

8:                                                ; preds = %6
  tail call void @git_check_attr(ptr noundef %0, ptr noundef nonnull %1, ptr noundef %7) #9
  %9 = load ptr, ptr @userdiff_find_by_path.check, align 8, !tbaa !34
  %10 = getelementptr inbounds nuw i8, ptr %9, i64 8
  %11 = load ptr, ptr %10, align 8, !tbaa !36
  %12 = getelementptr inbounds nuw i8, ptr %11, i64 8
  %13 = load ptr, ptr %12, align 8, !tbaa !41
  %14 = icmp eq ptr %13, @git_attr__true
  br i1 %14, label %21, label %15

15:                                               ; preds = %8
  %16 = icmp eq ptr %13, @git_attr__false
  br i1 %16, label %21, label %17

17:                                               ; preds = %15
  %18 = icmp eq ptr %13, null
  br i1 %18, label %21, label %19

19:                                               ; preds = %17
  %20 = tail call ptr @userdiff_find_by_name(ptr noundef nonnull %13)
  br label %21

21:                                               ; preds = %17, %15, %8, %6, %19
  %.0 = phi ptr [ %20, %19 ], [ null, %6 ], [ @driver_true, %8 ], [ @driver_false, %15 ], [ null, %17 ]
  ret ptr %.0
}